; ModuleID = 'source-C-CXX/25/704.c'
source_filename = "source-C-CXX/25/704.c"
target datalayout = "e-m:e-p270:32:32-p271:32:32-p272:64:64-i64:64-f80:128-n8:16:32:64-S128"
target triple = "x86_64-pc-linux-gnu"

; Function Attrs: nounwind sspstrong uwtable
define dso_local void @main() local_unnamed_addr #0 {
  %1 = alloca [101 x i8], align 16
  %2 = getelementptr inbounds [101 x i8], [101 x i8]* %1, i64 0, i64 0
  call void @llvm.lifetime.start.p0i8(i64 101, i8* nonnull %2) #4
  %3 = call i32 (i8*, ...) bitcast (i32 (...)* @gets to i32 (i8*, ...)*)(i8* nonnull %2) #4
  br label %4

4:                                                ; preds = %17, %0
  %5 = phi i64 [ %19, %17 ], [ 0, %0 ]
  %6 = phi i32 [ %18, %17 ], [ undef, %0 ]
  %7 = getelementptr inbounds [101 x i8], [101 x i8]* %1, i64 0, i64 %5
  %8 = load i8, i8* %7, align 1, !tbaa !5
  switch i8 %8, label %11 [
    i8 0, label %20
    i8 32, label %9
  ]

9:                                                ; preds = %4
  %10 = icmp eq i32 %6, 1
  br i1 %10, label %17, label %13

11:                                               ; preds = %4
  %12 = sext i8 %8 to i32
  br label %13

13:                                               ; preds = %9, %11
  %14 = phi i32 [ %12, %11 ], [ 32, %9 ]
  %15 = phi i32 [ 0, %11 ], [ 1, %9 ]
  %16 = call i32 @putchar(i32 %14)
  br label %17

17:                                               ; preds = %13, %9
  %18 = phi i32 [ 1, %9 ], [ %15, %13 ]
  %19 = add nuw i64 %5, 1
  br label %4, !llvm.loop !8

20:                                               ; preds = %4
  call void @llvm.lifetime.end.p0i8(i64 101, i8* nonnull %2) #4
  ret void
}

; Function Attrs: argmemonly mustprogress nofree nosync nounwind willreturn
declare void @llvm.lifetime.start.p0i8(i64 immarg, i8* nocapture) #1

declare i32 @gets(...) local_unnamed_addr #2

; Function Attrs: argmemonly mustprogress nofree nosync nounwind willreturn
declare void @llvm.lifetime.end.p0i8(i64 immarg, i8* nocapture) #1

; Function Attrs: nofree nounwind
declare noundef i32 @putchar(i32 noundef) local_unnamed_addr #3


!llvm.module.flags = !{!0, !1, !2, !3}
!llvm.ident = !{!4}

!0 = !{i32 1, !"wchar_size", i32 4}
!1 = !{i32 7, !"PIC Level", i32 2}
!2 = !{i32 7, !"PIE Level", i32 2}
!3 = !{i32 7, !"uwtable", i32 1}
!4 = !{!"clang version 13.0.0"}
!5 = !{!6, !6, i64 0}
!6 = !{!"omnipotent char", !7, i64 0}
!7 = !{!"Simple C/C++ TBAA"}
!8 = distinct !{!8, !9}
!9 = !{!"llvm.loop.mustprogress"}
